target datalayout = "e-m:e-p270:32:32-p271:32:32-p272:64:64-i64:64-i128:128-f80:128-n8:16:32:64-S128"
target triple = "x86_64-pc-linux-gnu"

%struct.notes_cache = type { %struct.notes_tree, ptr }
%struct.notes_tree = type { ptr, ptr, ptr, ptr, ptr, ptr, i32, i32 }

@the_repository = external global ptr, align 8

; Function Attrs: nounwind uwtable
define dso_local ptr @notes_cache_get(ptr noundef %0, ptr noundef %1, ptr noundef %2) #0 {
  %4 = alloca ptr, align 8
  %5 = alloca ptr, align 8
  %6 = alloca ptr, align 8
  %7 = alloca ptr, align 8
  %8 = alloca ptr, align 8
  %9 = alloca i32, align 4
  %10 = alloca ptr, align 8
  %11 = alloca i64, align 8
  %12 = alloca i32, align 4
  store ptr %0, ptr %5, align 8, !tbaa !9
  store ptr %1, ptr %6, align 8, !tbaa !29
  store ptr %2, ptr %7, align 8, !tbaa !31
  call void @llvm.lifetime.start.p0(i64 8, ptr %8) #7
  call void @llvm.lifetime.start.p0(i64 4, ptr %9) #7
  call void @llvm.lifetime.start.p0(i64 8, ptr %10) #7
  call void @llvm.lifetime.start.p0(i64 8, ptr %11) #7
  %13 = load ptr, ptr %5, align 8, !tbaa !9
  %14 = getelementptr inbounds nuw %struct.notes_cache, ptr %13, i32 0, i32 0
  %15 = load ptr, ptr %6, align 8, !tbaa !29
  %16 = call ptr @get_note(ptr noundef %14, ptr noundef %15)
  store ptr %16, ptr %8, align 8, !tbaa !29
  %17 = load ptr, ptr %8, align 8, !tbaa !29
  %18 = icmp ne ptr %17, null
  br i1 %18, label %20, label %19

19:                                               ; preds = %3
  store ptr null, ptr %4, align 8
  store i32 1, ptr %12, align 4
  br label %27

20:                                               ; preds = %3
  %21 = load ptr, ptr @the_repository, align 8, !tbaa !4
  %22 = load ptr, ptr %8, align 8, !tbaa !29
  %23 = call ptr @repo_read_object_file(ptr noundef %21, ptr noundef %22, ptr noundef %9, ptr noundef %11)
  store ptr %23, ptr %10, align 8, !tbaa !11
  %24 = load i64, ptr %11, align 8, !tbaa !33
  %25 = load ptr, ptr %7, align 8, !tbaa !31
  store i64 %24, ptr %25, align 8, !tbaa !33
  %26 = load ptr, ptr %10, align 8, !tbaa !11
  store ptr %26, ptr %4, align 8
  store i32 1, ptr %12, align 4
  br label %27

27:                                               ; preds = %20, %19
  call void @llvm.lifetime.end.p0(i64 8, ptr %11) #7
  call void @llvm.lifetime.end.p0(i64 8, ptr %10) #7
  call void @llvm.lifetime.end.p0(i64 4, ptr %9) #7
  call void @llvm.lifetime.end.p0(i64 8, ptr %8) #7
  %28 = load ptr, ptr %4, align 8
  ret ptr %28
}