; Function Attrs: nounwind uwtable
define dso_local ptr @notes_cache_get(ptr noundef %0, ptr noundef %1, ptr noundef writeonly captures(none) %2) local_unnamed_addr #0 {
  %4 = alloca i32, align 4
  %5 = alloca i64, align 8
  call void @llvm.lifetime.start.p0(i64 4, ptr nonnull %4) #6
  call void @llvm.lifetime.start.p0(i64 8, ptr nonnull %5) #6
  %6 = tail call ptr @get_note(ptr noundef %0, ptr noundef %1) #6
  %.not = icmp eq ptr %6, null
  br i1 %.not, label %11, label %7

7:                                                ; preds = %3
  %8 = load ptr, ptr @the_repository, align 8, !tbaa !17
  %9 = call ptr @repo_read_object_file(ptr noundef %8, ptr noundef nonnull %6, ptr noundef nonnull %4, ptr noundef nonnull %5) #6
  %10 = load i64, ptr %5, align 8, !tbaa !23
  store i64 %10, ptr %2, align 8, !tbaa !23
  br label %11

11:                                               ; preds = %3, %7
  %.0 = phi ptr [ %9, %7 ], [ null, %3 ]
  call void @llvm.lifetime.end.p0(i64 8, ptr nonnull %5) #6
  call void @llvm.lifetime.end.p0(i64 4, ptr nonnull %4) #6
  ret ptr %.0
}